; Function Attrs: mustprogress uwtable
define hidden void @_ZN4cvc58internal6theory11quantifiers13RConsTypeInfo7addTermENS0_12NodeTemplateILb1EEE(ptr dead_on_unwind noalias writable sret(%"class.cvc5::internal::NodeTemplate") align 8 %0, ptr noundef nonnull readonly align 8 captures(none) dereferenceable(112) %1, ptr noundef readonly captures(none) %2) local_unnamed_addr #3 align 2 personality ptr @__gxx_personality_v0 {
  %4 = alloca %"class.std::vector.346", align 8
  %5 = alloca %"class.cvc5::internal::NodeTemplate", align 8
  call void @llvm.lifetime.start.p0(i64 24, ptr nonnull %4) #22
  call void @llvm.memset.p0.i64(ptr noundef nonnull align 8 dereferenceable(24) %4, i8 0, i64 24, i1 false)
  %6 = getelementptr inbounds nuw i8, ptr %1, i64 40
  %7 = load ptr, ptr %6, align 8, !tbaa !45
  %8 = load ptr, ptr %2, align 8, !tbaa !32
  store ptr %8, ptr %5, align 8, !tbaa !32
  %9 = load i64, ptr %8, align 8
  %10 = lshr i64 %9, 40
  %11 = trunc nuw nsw i64 %10 to i32
  %12 = and i32 %11, 1048575
  %13 = icmp samesign ult i32 %12, 1048574
  br i1 %13, label %14, label %19, !prof !51

14:                                               ; preds = %3
  %15 = add i64 %9, 1099511627776
  %16 = and i64 %15, 1152920405095219200
  %17 = and i64 %9, -1152920405095219201
  %18 = or disjoint i64 %16, %17
  store i64 %18, ptr %8, align 8
  br label %_ZN4cvc58internal12NodeTemplateILb1EEC2ERKS2_.exit

19:                                               ; preds = %3
  %20 = icmp eq i32 %12, 1048574
  br i1 %20, label %21, label %_ZN4cvc58internal12NodeTemplateILb1EEC2ERKS2_.exit, !prof !35

21:                                               ; preds = %19
  %22 = or i64 %9, 1152920405095219200
  store i64 %22, ptr %8, align 8
  invoke void @_ZN4cvc58internal4expr9NodeValue20markRefCountMaxedOutEv(ptr noundef nonnull align 8 dereferenceable(24) %8)
          to label %_ZN4cvc58internal12NodeTemplateILb1EEC2ERKS2_.exit unwind label %61

_ZN4cvc58internal12NodeTemplateILb1EEC2ERKS2_.exit: ; preds = %19, %14, %21
  invoke void @_ZN4cvc58internal6theory11quantifiers24CandidateRewriteDatabase12addOrGetTermENS0_12NodeTemplateILb1EEERSt6vectorIS5_SaIS5_EE(ptr dead_on_unwind writable sret(%"class.cvc5::internal::NodeTemplate") align 8 %0, ptr noundef nonnull align 8 dereferenceable(888) %7, ptr noundef nonnull %5, ptr noundef nonnull align 8 dereferenceable(24) %4)
          to label %23 unwind label %63

23:                                               ; preds = %_ZN4cvc58internal12NodeTemplateILb1EEC2ERKS2_.exit
  %24 = load ptr, ptr %5, align 8, !tbaa !32
  %25 = load i64, ptr %24, align 8
  %26 = and i64 %25, 1152920405095219200
  %.not.i.i = icmp eq i64 %26, 1152920405095219200
  br i1 %.not.i.i, label %_ZN4cvc58internal12NodeTemplateILb1EED2Ev.exit, label %27, !prof !35

27:                                               ; preds = %23
  %28 = add i64 %25, 1152920405095219200
  %29 = and i64 %28, 1152920405095219200
  %30 = and i64 %25, -1152920405095219201
  %31 = or disjoint i64 %29, %30
  store i64 %31, ptr %24, align 8
  %32 = icmp eq i64 %29, 0
  br i1 %32, label %33, label %_ZN4cvc58internal12NodeTemplateILb1EED2Ev.exit, !prof !35

33:                                               ; preds = %27
  invoke void @_ZN4cvc58internal4expr9NodeValue15markForDeletionEv(ptr noundef nonnull align 8 dereferenceable(24) %24)
          to label %_ZN4cvc58internal12NodeTemplateILb1EED2Ev.exit unwind label %34

34:                                               ; preds = %33
  %35 = landingpad { ptr, i32 }
          catch ptr null
  %36 = extractvalue { ptr, i32 } %35, 0
  call void @__clang_call_terminate(ptr %36) #23
  unreachable

_ZN4cvc58internal12NodeTemplateILb1EED2Ev.exit:   ; preds = %23, %27, %33
  %37 = load ptr, ptr %4, align 8, !tbaa !305
  %38 = getelementptr inbounds nuw i8, ptr %4, i64 8
  %39 = load ptr, ptr %38, align 8, !tbaa !308
  %.not4.i.i.i.i = icmp eq ptr %37, %39
  br i1 %.not4.i.i.i.i, label %_ZSt8_DestroyIPN4cvc58internal12NodeTemplateILb1EEES3_EvT_S5_RSaIT0_E.exit.i, label %.lr.ph.i.i.i.i

.lr.ph.i.i.i.i:                                   ; preds = %_ZN4cvc58internal12NodeTemplateILb1EED2Ev.exit, %_ZSt8_DestroyIN4cvc58internal12NodeTemplateILb1EEEEvPT_.exit.i.i.i.i
  %.05.i.i.i.i = phi ptr [ %53, %_ZSt8_DestroyIN4cvc58internal12NodeTemplateILb1EEEEvPT_.exit.i.i.i.i ], [ %37, %_ZN4cvc58internal12NodeTemplateILb1EED2Ev.exit ]
  %40 = load ptr, ptr %.05.i.i.i.i, align 8, !tbaa !32
  %41 = load i64, ptr %40, align 8
  %42 = and i64 %41, 1152920405095219200
  %.not.i.i.i.i.i.i.i = icmp eq i64 %42, 1152920405095219200
  br i1 %.not.i.i.i.i.i.i.i, label %_ZSt8_DestroyIN4cvc58internal12NodeTemplateILb1EEEEvPT_.exit.i.i.i.i, label %43, !prof !35

43:                                               ; preds = %.lr.ph.i.i.i.i
  %44 = add i64 %41, 1152920405095219200
  %45 = and i64 %44, 1152920405095219200
  %46 = and i64 %41, -1152920405095219201
  %47 = or disjoint i64 %45, %46
  store i64 %47, ptr %40, align 8
  %48 = icmp eq i64 %45, 0
  br i1 %48, label %49, label %_ZSt8_DestroyIN4cvc58internal12NodeTemplateILb1EEEEvPT_.exit.i.i.i.i, !prof !35

49:                                               ; preds = %43
  invoke void @_ZN4cvc58internal4expr9NodeValue15markForDeletionEv(ptr noundef nonnull align 8 dereferenceable(24) %40)
          to label %_ZSt8_DestroyIN4cvc58internal12NodeTemplateILb1EEEEvPT_.exit.i.i.i.i unwind label %50

50:                                               ; preds = %49
  %51 = landingpad { ptr, i32 }
          catch ptr null
  %52 = extractvalue { ptr, i32 } %51, 0
  call void @__clang_call_terminate(ptr %52) #23
  unreachable

_ZSt8_DestroyIN4cvc58internal12NodeTemplateILb1EEEEvPT_.exit.i.i.i.i: ; preds = %49, %43, %.lr.ph.i.i.i.i
  %53 = getelementptr inbounds nuw i8, ptr %.05.i.i.i.i, i64 8
  %.not.i.i.i.i = icmp eq ptr %53, %39
  br i1 %.not.i.i.i.i, label %_ZSt8_DestroyIPN4cvc58internal12NodeTemplateILb1EEES3_EvT_S5_RSaIT0_E.exitthread-pre-split.i, label %.lr.ph.i.i.i.i, !llvm.loop !309

_ZSt8_DestroyIPN4cvc58internal12NodeTemplateILb1EEES3_EvT_S5_RSaIT0_E.exitthread-pre-split.i: ; preds = %_ZSt8_DestroyIN4cvc58internal12NodeTemplateILb1EEEEvPT_.exit.i.i.i.i
  %.pr.i = load ptr, ptr %4, align 8, !tbaa !305
  br label %_ZSt8_DestroyIPN4cvc58internal12NodeTemplateILb1EEES3_EvT_S5_RSaIT0_E.exit.i

_ZSt8_DestroyIPN4cvc58internal12NodeTemplateILb1EEES3_EvT_S5_RSaIT0_E.exit.i: ; preds = %_ZSt8_DestroyIPN4cvc58internal12NodeTemplateILb1EEES3_EvT_S5_RSaIT0_E.exitthread-pre-split.i, %_ZN4cvc58internal12NodeTemplateILb1EED2Ev.exit
  %54 = phi ptr [ %.pr.i, %_ZSt8_DestroyIPN4cvc58internal12NodeTemplateILb1EEES3_EvT_S5_RSaIT0_E.exitthread-pre-split.i ], [ %37, %_ZN4cvc58internal12NodeTemplateILb1EED2Ev.exit ]
  %.not.i.i.i = icmp eq ptr %54, null
  br i1 %.not.i.i.i, label %_ZNSt6vectorIN4cvc58internal12NodeTemplateILb1EEESaIS3_EED2Ev.exit, label %55

55:                                               ; preds = %_ZSt8_DestroyIPN4cvc58internal12NodeTemplateILb1EEES3_EvT_S5_RSaIT0_E.exit.i
  %56 = getelementptr inbounds nuw i8, ptr %4, i64 16
  %57 = load ptr, ptr %56, align 8, !tbaa !310
  %58 = ptrtoint ptr %57 to i64
  %59 = ptrtoint ptr %54 to i64
  %60 = sub i64 %58, %59
  call void @_ZdlPvm(ptr noundef nonnull %54, i64 noundef %60) #20
  br label %_ZNSt6vectorIN4cvc58internal12NodeTemplateILb1EEESaIS3_EED2Ev.exit

_ZNSt6vectorIN4cvc58internal12NodeTemplateILb1EEESaIS3_EED2Ev.exit: ; preds = %_ZSt8_DestroyIPN4cvc58internal12NodeTemplateILb1EEES3_EvT_S5_RSaIT0_E.exit.i, %55
  call void @llvm.lifetime.end.p0(i64 24, ptr nonnull %4) #22
  ret void

61:                                               ; preds = %21
  %62 = landingpad { ptr, i32 }
          cleanup
  br label %65

63:                                               ; preds = %_ZN4cvc58internal12NodeTemplateILb1EEC2ERKS2_.exit
  %64 = landingpad { ptr, i32 }
          cleanup
  call void @_ZN4cvc58internal12NodeTemplateILb1EED2Ev(ptr noundef nonnull align 8 dereferenceable(8) %5) #22
  br label %65

65:                                               ; preds = %63, %61
  %.pn = phi { ptr, i32 } [ %64, %63 ], [ %62, %61 ]
  call void @_ZNSt6vectorIN4cvc58internal12NodeTemplateILb1EEESaIS3_EED2Ev(ptr noundef nonnull align 8 dereferenceable(24) %4) #22
  call void @llvm.lifetime.end.p0(i64 24, ptr nonnull %4) #22
  resume { ptr, i32 } %.pn
}